; ModuleID = '12/993.c'
source_filename = "12/993.c"
target datalayout = "e-m:e-p270:32:32-p271:32:32-p272:64:64-i64:64-f80:128-n8:16:32:64-S128"
target triple = "x86_64-pc-linux-gnu"

@.str = private unnamed_addr constant [3 x i8] c"%d\00", align 1
@.str.1 = private unnamed_addr constant [4 x i8] c"%d\0A\00", align 1

; Function Attrs: noinline nounwind uwtable
define dso_local i32 @main() #0 {
  %1 = alloca i32, align 4
  %2 = alloca [50 x [16 x i32]], align 16
  %3 = alloca [50 x i32], align 16
  %4 = alloca [50 x i32], align 16
  %5 = alloca i32, align 4
  %6 = alloca i32, align 4
  %7 = alloca i32, align 4
  %8 = alloca i32, align 4
  %9 = alloca i32, align 4
  %10 = alloca i32, align 4
  %11 = alloca i32, align 4
  store i32 0, i32* %1, align 4
  store i32 0, i32* %11, align 4
  store i32 0, i32* %5, align 4
  br label %12

12:                                               ; preds = %67, %0
  %13 = load i32, i32* %5, align 4
  %14 = icmp sle i32 %13, 49
  br i1 %14, label %15, label %70

15:                                               ; preds = %12
  store i32 0, i32* %6, align 4
  br label %16

16:                                               ; preds = %54, %15
  %17 = load i32, i32* %6, align 4
  %18 = icmp sle i32 %17, 15
  br i1 %18, label %19, label %57

19:                                               ; preds = %16
  %20 = load i32, i32* %5, align 4
  %21 = sext i32 %20 to i64
  %22 = getelementptr inbounds [50 x [16 x i32]], [50 x [16 x i32]]* %2, i64 0, i64 %21
  %23 = load i32, i32* %6, align 4
  %24 = sext i32 %23 to i64
  %25 = getelementptr inbounds [16 x i32], [16 x i32]* %22, i64 0, i64 %24
  %26 = call i32 (i8*, ...) @__isoc99_scanf(i8* getelementptr inbounds ([3 x i8], [3 x i8]* @.str, i64 0, i64 0), i32* %25)
  %27 = load i32, i32* %5, align 4
  %28 = sext i32 %27 to i64
  %29 = getelementptr inbounds [50 x [16 x i32]], [50 x [16 x i32]]* %2, i64 0, i64 %28
  %30 = load i32, i32* %6, align 4
  %31 = sext i32 %30 to i64
  %32 = getelementptr inbounds [16 x i32], [16 x i32]* %29, i64 0, i64 %31
  %33 = load i32, i32* %32, align 4
  %34 = icmp eq i32 %33, 0
  br i1 %34, label %44, label %35

35:                                               ; preds = %19
  %36 = load i32, i32* %5, align 4
  %37 = sext i32 %36 to i64
  %38 = getelementptr inbounds [50 x [16 x i32]], [50 x [16 x i32]]* %2, i64 0, i64 %37
  %39 = load i32, i32* %6, align 4
  %40 = sext i32 %39 to i64
  %41 = getelementptr inbounds [16 x i32], [16 x i32]* %38, i64 0, i64 %40
  %42 = load i32, i32* %41, align 4
  %43 = icmp eq i32 %42, -1
  br i1 %43, label %44, label %53

44:                                               ; preds = %35, %19
  %45 = load i32, i32* %6, align 4
  %46 = sub nsw i32 %45, 1
  %47 = load i32, i32* %5, align 4
  %48 = sext i32 %47 to i64
  %49 = getelementptr inbounds [50 x i32], [50 x i32]* %3, i64 0, i64 %48
  store i32 %46, i32* %49, align 4
  %50 = load i32, i32* %5, align 4
  %51 = sext i32 %50 to i64
  %52 = getelementptr inbounds [50 x i32], [50 x i32]* %4, i64 0, i64 %51
  store i32 0, i32* %52, align 4
  br label %57

53:                                               ; preds = %35
  br label %54

54:                                               ; preds = %53
  %55 = load i32, i32* %6, align 4
  %56 = add nsw i32 %55, 1
  store i32 %56, i32* %6, align 4
  br label %16

57:                                               ; preds = %44, %16
  %58 = load i32, i32* %5, align 4
  %59 = sext i32 %58 to i64
  %60 = getelementptr inbounds [50 x [16 x i32]], [50 x [16 x i32]]* %2, i64 0, i64 %59
  %61 = getelementptr inbounds [16 x i32], [16 x i32]* %60, i64 0, i64 0
  %62 = load i32, i32* %61, align 16
  %63 = icmp eq i32 %62, -1
  br i1 %63, label %64, label %65

64:                                               ; preds = %57
  br label %70

65:                                               ; preds = %57
  %66 = load i32, i32* %5, align 4
  store i32 %66, i32* %10, align 4
  br label %67

67:                                               ; preds = %65
  %68 = load i32, i32* %5, align 4
  %69 = add nsw i32 %68, 1
  store i32 %69, i32* %5, align 4
  br label %12

70:                                               ; preds = %64, %12
  store i32 0, i32* %7, align 4
  br label %71

71:                                               ; preds = %131, %70
  %72 = load i32, i32* %7, align 4
  %73 = load i32, i32* %10, align 4
  %74 = icmp sle i32 %72, %73
  br i1 %74, label %75, label %134

75:                                               ; preds = %71
  store i32 0, i32* %8, align 4
  br label %76

76:                                               ; preds = %122, %75
  %77 = load i32, i32* %8, align 4
  %78 = load i32, i32* %7, align 4
  %79 = sext i32 %78 to i64
  %80 = getelementptr inbounds [50 x i32], [50 x i32]* %3, i64 0, i64 %79
  %81 = load i32, i32* %80, align 4
  %82 = icmp sle i32 %77, %81
  br i1 %82, label %83, label %125

83:                                               ; preds = %76
  store i32 0, i32* %9, align 4
  br label %84

84:                                               ; preds = %118, %83
  %85 = load i32, i32* %9, align 4
  %86 = load i32, i32* %7, align 4
  %87 = sext i32 %86 to i64
  %88 = getelementptr inbounds [50 x i32], [50 x i32]* %3, i64 0, i64 %87
  %89 = load i32, i32* %88, align 4
  %90 = icmp sle i32 %85, %89
  br i1 %90, label %91, label %121

91:                                               ; preds = %84
  %92 = load i32, i32* %7, align 4
  %93 = sext i32 %92 to i64
  %94 = getelementptr inbounds [50 x [16 x i32]], [50 x [16 x i32]]* %2, i64 0, i64 %93
  %95 = load i32, i32* %8, align 4
  %96 = sext i32 %95 to i64
  %97 = getelementptr inbounds [16 x i32], [16 x i32]* %94, i64 0, i64 %96
  %98 = load i32, i32* %97, align 4
  %99 = load i32, i32* %7, align 4
  %100 = sext i32 %99 to i64
  %101 = getelementptr inbounds [50 x [16 x i32]], [50 x [16 x i32]]* %2, i64 0, i64 %100
  %102 = load i32, i32* %9, align 4
  %103 = sext i32 %102 to i64
  %104 = getelementptr inbounds [16 x i32], [16 x i32]* %101, i64 0, i64 %103
  %105 = load i32, i32* %104, align 4
  %106 = mul nsw i32 2, %105
  %107 = icmp eq i32 %98, %106
  br i1 %107, label %108, label %117

108:                                              ; preds = %91
  %109 = load i32, i32* %7, align 4
  %110 = sext i32 %109 to i64
  %111 = getelementptr inbounds [50 x i32], [50 x i32]* %4, i64 0, i64 %110
  %112 = load i32, i32* %111, align 4
  %113 = add nsw i32 %112, 1
  %114 = load i32, i32* %7, align 4
  %115 = sext i32 %114 to i64
  %116 = getelementptr inbounds [50 x i32], [50 x i32]* %4, i64 0, i64 %115
  store i32 %113, i32* %116, align 4
  br label %117

117:                                              ; preds = %108, %91
  br label %118

118:                                              ; preds = %117
  %119 = load i32, i32* %9, align 4
  %120 = add nsw i32 %119, 1
  store i32 %120, i32* %9, align 4
  br label %84

121:                                              ; preds = %84
  br label %122

122:                                              ; preds = %121
  %123 = load i32, i32* %8, align 4
  %124 = add nsw i32 %123, 1
  store i32 %124, i32* %8, align 4
  br label %76

125:                                              ; preds = %76
  %126 = load i32, i32* %7, align 4
  %127 = sext i32 %126 to i64
  %128 = getelementptr inbounds [50 x i32], [50 x i32]* %4, i64 0, i64 %127
  %129 = load i32, i32* %128, align 4
  %130 = call i32 (i8*, ...) @printf(i8* getelementptr inbounds ([4 x i8], [4 x i8]* @.str.1, i64 0, i64 0), i32 %129)
  br label %131

131:                                              ; preds = %125
  %132 = load i32, i32* %7, align 4
  %133 = add nsw i32 %132, 1
  store i32 %133, i32* %7, align 4
  br label %71

134:                                              ; preds = %71
  ret i32 0
}

declare dso_local i32 @__isoc99_scanf(i8*, ...) #1

declare dso_local i32 @printf(i8*, ...) #1


!llvm.module.flags = !{!0}
!llvm.ident = !{!1}

!0 = !{i32 1, !"wchar_size", i32 4}
!1 = !{!"clang version 10.0.0-4ubuntu1 "}
